target datalayout = "e-m:e-p270:32:32-p271:32:32-p272:64:64-i64:64-i128:128-f80:128-n8:16:32:64-S128"
target triple = "x86_64-pc-linux-gnu"

%struct.GCtab = type { %struct.GCRef, i8, i8, i8, i8, %struct.MRef, %struct.GCRef, %struct.GCRef, %struct.MRef, i32, i32, %struct.MRef }
%struct.GCRef = type { i64 }
%struct.MRef = type { i64 }
%union.TValue = type { i64 }

; Function Attrs: nounwind uwtable
define hidden i32 @lj_tab_len_hint(ptr noundef %0, i64 noundef %1) #0 {
  %3 = alloca i32, align 4
  %4 = alloca ptr, align 8
  %5 = alloca i64, align 8
  %6 = alloca i64, align 8
  %7 = alloca ptr, align 8
  %8 = alloca i32, align 4
  store ptr %0, ptr %4, align 8, !tbaa !11
  store i64 %1, ptr %5, align 8, !tbaa !39
  call void @llvm.lifetime.start.p0(i64 8, ptr %6) #9
  %9 = load ptr, ptr %4, align 8, !tbaa !11
  %10 = getelementptr inbounds nuw %struct.GCtab, ptr %9, i32 0, i32 9
  %11 = load i32, ptr %10, align 8, !tbaa !23
  %12 = zext i32 %11 to i64
  store i64 %12, ptr %6, align 8, !tbaa !39
  call void @llvm.lifetime.start.p0(i64 8, ptr %7) #9
  %13 = load ptr, ptr %4, align 8, !tbaa !11
  %14 = getelementptr inbounds nuw %struct.GCtab, ptr %13, i32 0, i32 5
  %15 = getelementptr inbounds nuw %struct.MRef, ptr %14, i32 0, i32 0
  %16 = load i64, ptr %15, align 8, !tbaa !21
  %17 = inttoptr i64 %16 to ptr
  %18 = load i64, ptr %5, align 8, !tbaa !39
  %19 = getelementptr inbounds nuw %union.TValue, ptr %17, i64 %18
  store ptr %19, ptr %7, align 8, !tbaa !31
  %20 = load i64, ptr %5, align 8, !tbaa !39
  %21 = add i64 %20, 1
  %22 = load i64, ptr %6, align 8, !tbaa !39
  %23 = icmp ult i64 %21, %22
  %24 = xor i1 %23, true
  %25 = xor i1 %24, true
  %26 = zext i1 %25 to i32
  %27 = sext i32 %26 to i64
  %28 = call i64 @llvm.expect.i64(i64 %27, i64 1)
  %29 = icmp ne i64 %28, 0
  br i1 %29, label %30, label %51

30:                                               ; preds = %2
  %31 = load ptr, ptr %7, align 8, !tbaa !31
  %32 = load i64, ptr %31, align 8, !tbaa !32
  %33 = icmp eq i64 %32, -1
  br i1 %33, label %39, label %34

34:                                               ; preds = %30
  %35 = load ptr, ptr %7, align 8, !tbaa !31
  %36 = getelementptr inbounds %union.TValue, ptr %35, i64 1
  %37 = load i64, ptr %36, align 8, !tbaa !32
  %38 = icmp eq i64 %37, -1
  br label %39

39:                                               ; preds = %34, %30
  %40 = phi i1 [ false, %30 ], [ %38, %34 ]
  %41 = xor i1 %40, true
  %42 = xor i1 %41, true
  %43 = zext i1 %42 to i32
  %44 = sext i32 %43 to i64
  %45 = call i64 @llvm.expect.i64(i64 %44, i64 1)
  %46 = icmp ne i64 %45, 0
  br i1 %46, label %47, label %50

47:                                               ; preds = %39
  %48 = load i64, ptr %5, align 8, !tbaa !39
  %49 = trunc i64 %48 to i32
  store i32 %49, ptr %3, align 4
  store i32 1, ptr %8, align 4
  br label %78

50:                                               ; preds = %39
  br label %75

51:                                               ; preds = %2
  %52 = load i64, ptr %5, align 8, !tbaa !39
  %53 = add i64 %52, 1
  %54 = load i64, ptr %6, align 8, !tbaa !39
  %55 = icmp ule i64 %53, %54
  br i1 %55, label %56, label %74

56:                                               ; preds = %51
  %57 = load ptr, ptr %4, align 8, !tbaa !11
  %58 = getelementptr inbounds nuw %struct.GCtab, ptr %57, i32 0, i32 10
  %59 = load i32, ptr %58, align 4, !tbaa !13
  %60 = icmp eq i32 %59, 0
  %61 = xor i1 %60, true
  %62 = xor i1 %61, true
  %63 = zext i1 %62 to i32
  %64 = sext i32 %63 to i64
  %65 = call i64 @llvm.expect.i64(i64 %64, i64 1)
  %66 = icmp ne i64 %65, 0
  br i1 %66, label %67, label %74

67:                                               ; preds = %56
  %68 = load ptr, ptr %7, align 8, !tbaa !31
  %69 = load i64, ptr %68, align 8, !tbaa !32
  %70 = icmp eq i64 %69, -1
  br i1 %70, label %74, label %71

71:                                               ; preds = %67
  %72 = load i64, ptr %5, align 8, !tbaa !39
  %73 = trunc i64 %72 to i32
  store i32 %73, ptr %3, align 4
  store i32 1, ptr %8, align 4
  br label %78

74:                                               ; preds = %67, %56, %51
  br label %75

75:                                               ; preds = %74, %50
  %76 = load ptr, ptr %4, align 8, !tbaa !11
  %77 = call i32 @lj_tab_len(ptr noundef %76)
  store i32 %77, ptr %3, align 4
  store i32 1, ptr %8, align 4
  br label %78

78:                                               ; preds = %75, %71, %47
  call void @llvm.lifetime.end.p0(i64 8, ptr %7) #9
  call void @llvm.lifetime.end.p0(i64 8, ptr %6) #9
  %79 = load i32, ptr %3, align 4
  ret i32 %79
}