; Function Attrs: nofree norecurse nosync nounwind memory(read, inaccessiblemem: none) uwtable
define hidden i32 @lj_tab_len_hint(ptr noundef readonly captures(none) %0, i64 noundef %1) local_unnamed_addr #7 {
  %3 = getelementptr inbounds nuw i8, ptr %0, i64 48
  %4 = load i32, ptr %3, align 8, !tbaa !4
  %5 = zext i32 %4 to i64
  %6 = getelementptr inbounds nuw i8, ptr %0, i64 16
  %7 = load i64, ptr %6, align 8, !tbaa !12
  %8 = inttoptr i64 %7 to ptr
  %9 = getelementptr inbounds nuw %union.TValue, ptr %8, i64 %1
  %10 = add i64 %1, 1
  %11 = icmp ult i64 %10, %5
  br i1 %11, label %12, label %21, !prof !63

12:                                               ; preds = %2
  %13 = load i64, ptr %9, align 8, !tbaa !13
  %14 = icmp eq i64 %13, -1
  br i1 %14, label %.critedge, label %15, !prof !62

15:                                               ; preds = %12
  %16 = getelementptr inbounds nuw i8, ptr %9, i64 8
  %17 = load i64, ptr %16, align 8, !tbaa !13
  %18 = icmp eq i64 %17, -1
  br i1 %18, label %19, label %.critedge, !prof !63

19:                                               ; preds = %15
  %20 = trunc i64 %1 to i32
  br label %32

21:                                               ; preds = %2
  %.not = icmp ugt i64 %10, %5
  br i1 %.not, label %.critedge, label %22

22:                                               ; preds = %21
  %23 = getelementptr inbounds nuw i8, ptr %0, i64 52
  %24 = load i32, ptr %23, align 4, !tbaa !14
  %25 = icmp eq i32 %24, 0
  br i1 %25, label %26, label %.critedge, !prof !63

26:                                               ; preds = %22
  %27 = load i64, ptr %9, align 8, !tbaa !13
  %28 = icmp eq i64 %27, -1
  br i1 %28, label %.critedge, label %29

29:                                               ; preds = %26
  %30 = trunc i64 %1 to i32
  br label %32

.critedge:                                        ; preds = %12, %21, %22, %26, %15
  %31 = tail call i32 @lj_tab_len(ptr noundef nonnull %0)
  br label %32

32:                                               ; preds = %.critedge, %29, %19
  %.0 = phi i32 [ %20, %19 ], [ %31, %.critedge ], [ %30, %29 ]
  ret i32 %.0
}